target datalayout = "e-m:e-p270:32:32-p271:32:32-p272:64:64-i64:64-i128:128-f80:128-n8:16:32:64-S128"
target triple = "x86_64-pc-linux-gnu"

@.str.30 = private unnamed_addr constant [16 x i8] c"awdl.tag.number\00", align 1
@.str.425 = private unnamed_addr constant [19 x i8] c"llc.apple_awdl_pid\00", align 1
@.str.433 = private unnamed_addr constant [38 x i8] c"Apple Wireless Direct Link data frame\00", align 1
@.str.434 = private unnamed_addr constant [10 x i8] c"AWDL data\00", align 1
@.str.435 = private unnamed_addr constant [10 x i8] c"awdl_data\00", align 1
@proto_awdl_data = internal global i32 0, align 4
@awdl_data_handle = internal global ptr null, align 8
@.str.436 = private unnamed_addr constant [40 x i8] c"Apple Wireless Direct Link action frame\00", align 1
@.str.437 = private unnamed_addr constant [5 x i8] c"AWDL\00", align 1
@.str.438 = private unnamed_addr constant [5 x i8] c"awdl\00", align 1
@proto_awdl = internal global i32 0, align 4
@awdl_action_handle = internal global ptr null, align 8
@.str.439 = private unnamed_addr constant [10 x i8] c"AWDL Tags\00", align 1
@tagged_field_table = internal global ptr null, align 8
@.str.440 = private unnamed_addr constant [23 x i8] c"LLC Apple AWDL OUI PID\00", align 1

; Function Attrs: null_pointer_is_valid sspstrong uwtable
define internal void @awdl_register_tags() #0 {
  %1 = load i32, ptr @proto_awdl, align 4
  %2 = call ptr @create_dissector_handle(ptr noundef @awdl_tag_service_response, i32 noundef %1)
  call void @dissector_add_uint(ptr noundef @.str.30, i32 noundef 2, ptr noundef %2)
  %3 = load i32, ptr @proto_awdl, align 4
  %4 = call ptr @create_dissector_handle(ptr noundef @awdl_tag_sync_params, i32 noundef %3)
  call void @dissector_add_uint(ptr noundef @.str.30, i32 noundef 4, ptr noundef %4)
  %5 = load i32, ptr @proto_awdl, align 4
  %6 = call ptr @create_dissector_handle(ptr noundef @awdl_tag_election_params, i32 noundef %5)
  call void @dissector_add_uint(ptr noundef @.str.30, i32 noundef 5, ptr noundef %6)
  %7 = load i32, ptr @proto_awdl, align 4
  %8 = call ptr @create_dissector_handle(ptr noundef @awdl_tag_service_params, i32 noundef %7)
  call void @dissector_add_uint(ptr noundef @.str.30, i32 noundef 6, ptr noundef %8)
  %9 = load i32, ptr @proto_awdl, align 4
  %10 = call ptr @create_dissector_handle(ptr noundef @awdl_tag_ht_capabilities, i32 noundef %9)
  call void @dissector_add_uint(ptr noundef @.str.30, i32 noundef 7, ptr noundef %10)
  %11 = load i32, ptr @proto_awdl, align 4
  %12 = call ptr @create_dissector_handle(ptr noundef @awdl_tag_datapath_state, i32 noundef %11)
  call void @dissector_add_uint(ptr noundef @.str.30, i32 noundef 12, ptr noundef %12)
  %13 = load i32, ptr @proto_awdl, align 4
  %14 = call ptr @create_dissector_handle(ptr noundef @awdl_tag_arpa, i32 noundef %13)
  call void @dissector_add_uint(ptr noundef @.str.30, i32 noundef 16, ptr noundef %14)
  %15 = load i32, ptr @proto_awdl, align 4
  %16 = call ptr @create_dissector_handle(ptr noundef @awdl_tag_ieee80211_container, i32 noundef %15)
  call void @dissector_add_uint(ptr noundef @.str.30, i32 noundef 17, ptr noundef %16)
  %17 = load i32, ptr @proto_awdl, align 4
  %18 = call ptr @create_dissector_handle(ptr noundef @awdl_tag_channel_sequence, i32 noundef %17)
  call void @dissector_add_uint(ptr noundef @.str.30, i32 noundef 18, ptr noundef %18)
  %19 = load i32, ptr @proto_awdl, align 4
  %20 = call ptr @create_dissector_handle(ptr noundef @awdl_tag_sync_tree, i32 noundef %19)
  call void @dissector_add_uint(ptr noundef @.str.30, i32 noundef 20, ptr noundef %20)
  %21 = load i32, ptr @proto_awdl, align 4
  %22 = call ptr @create_dissector_handle(ptr noundef @awdl_tag_version, i32 noundef %21)
  call void @dissector_add_uint(ptr noundef @.str.30, i32 noundef 21, ptr noundef %22)
  %23 = load i32, ptr @proto_awdl, align 4
  %24 = call ptr @create_dissector_handle(ptr noundef @awdl_tag_election_params_v2, i32 noundef %23)
  call void @dissector_add_uint(ptr noundef @.str.30, i32 noundef 24, ptr noundef %24)
  ret void
}

; Function Attrs: null_pointer_is_valid sspstrong uwtable
define hidden void @proto_register_awdl() #0 {
  %1 = alloca ptr, align 8
  call void @llvm.lifetime.start.p0(i64 8, ptr %1) #6
  %2 = call i32 @proto_register_protocol(ptr noundef @.str.433, ptr noundef @.str.434, ptr noundef @.str.435)
  store i32 %2, ptr @proto_awdl_data, align 4
  %3 = load i32, ptr @proto_awdl_data, align 4
  %4 = call ptr @register_dissector(ptr noundef @.str.435, ptr noundef @dissect_awdl_data, i32 noundef %3)
  store ptr %4, ptr @awdl_data_handle, align 8
  %5 = call i32 @proto_register_protocol(ptr noundef @.str.436, ptr noundef @.str.437, ptr noundef @.str.438)
  store i32 %5, ptr @proto_awdl, align 4
  %6 = load i32, ptr @proto_awdl, align 4
  %7 = call ptr @register_dissector(ptr noundef @.str.438, ptr noundef @dissect_awdl_action, i32 noundef %6)
  store ptr %7, ptr @awdl_action_handle, align 8
  %8 = load i32, ptr @proto_awdl, align 4
  %9 = call ptr @expert_register_protocol(i32 noundef %8)
  store ptr %9, ptr %1, align 8
  %10 = load ptr, ptr %1, align 8
  call void @expert_register_field_array(ptr noundef %10, ptr noundef @proto_register_awdl.ei, i32 noundef 3)
  %11 = load i32, ptr @proto_awdl, align 4
  %12 = call ptr @register_dissector_table(ptr noundef @.str.30, ptr noundef @.str.439, i32 noundef %11, i32 noundef 4, i32 noundef 1)
  store ptr %12, ptr @tagged_field_table, align 8
  call void @awdl_register_tags()
  %13 = load i32, ptr @proto_awdl_data, align 4
  call void @proto_register_field_array(i32 noundef %13, ptr noundef @proto_register_awdl.hf, i32 noundef 217)
  call void @proto_register_subtree_array(ptr noundef @proto_register_awdl.ett, i32 noundef 22)
  call void @llc_add_oui(i32 noundef 6130, ptr noundef @.str.425, ptr noundef @.str.440, ptr noundef @proto_register_awdl.hf_apple_awdl_pid, i32 noundef -1)
  call void @llvm.lifetime.end.p0(i64 8, ptr %1) #6
  ret void
}