; Function Attrs: null_pointer_is_valid sspstrong uwtable
define hidden void @proto_register_awdl() local_unnamed_addr #0 {
  %1 = tail call i32 @proto_register_protocol(ptr noundef nonnull @.str.433, ptr noundef nonnull @.str.434, ptr noundef nonnull @.str.435)
  store i32 %1, ptr @proto_awdl_data, align 4
  %2 = tail call ptr @register_dissector(ptr noundef nonnull @.str.435, ptr noundef nonnull @dissect_awdl_data, i32 noundef %1)
  store ptr %2, ptr @awdl_data_handle, align 8
  %3 = tail call i32 @proto_register_protocol(ptr noundef nonnull @.str.436, ptr noundef nonnull @.str.437, ptr noundef nonnull @.str.438)
  store i32 %3, ptr @proto_awdl, align 4
  %4 = tail call ptr @register_dissector(ptr noundef nonnull @.str.438, ptr noundef nonnull @dissect_awdl_action, i32 noundef %3)
  store ptr %4, ptr @awdl_action_handle, align 8
  %5 = load i32, ptr @proto_awdl, align 4
  %6 = tail call ptr @expert_register_protocol(i32 noundef %5)
  tail call void @expert_register_field_array(ptr noundef %6, ptr noundef nonnull @proto_register_awdl.ei, i32 noundef 3)
  %7 = load i32, ptr @proto_awdl, align 4
  %8 = tail call ptr @register_dissector_table(ptr noundef nonnull @.str.30, ptr noundef nonnull @.str.439, i32 noundef %7, i32 noundef 4, i32 noundef 1)
  store ptr %8, ptr @tagged_field_table, align 8
  %9 = load i32, ptr @proto_awdl, align 4
  %10 = tail call ptr @create_dissector_handle(ptr noundef nonnull @awdl_tag_service_response, i32 noundef %9)
  tail call void @dissector_add_uint(ptr noundef nonnull @.str.30, i32 noundef 2, ptr noundef %10)
  %11 = load i32, ptr @proto_awdl, align 4
  %12 = tail call ptr @create_dissector_handle(ptr noundef nonnull @awdl_tag_sync_params, i32 noundef %11)
  tail call void @dissector_add_uint(ptr noundef nonnull @.str.30, i32 noundef 4, ptr noundef %12)
  %13 = load i32, ptr @proto_awdl, align 4
  %14 = tail call ptr @create_dissector_handle(ptr noundef nonnull @awdl_tag_election_params, i32 noundef %13)
  tail call void @dissector_add_uint(ptr noundef nonnull @.str.30, i32 noundef 5, ptr noundef %14)
  %15 = load i32, ptr @proto_awdl, align 4
  %16 = tail call ptr @create_dissector_handle(ptr noundef nonnull @awdl_tag_service_params, i32 noundef %15)
  tail call void @dissector_add_uint(ptr noundef nonnull @.str.30, i32 noundef 6, ptr noundef %16)
  %17 = load i32, ptr @proto_awdl, align 4
  %18 = tail call ptr @create_dissector_handle(ptr noundef nonnull @awdl_tag_ht_capabilities, i32 noundef %17)
  tail call void @dissector_add_uint(ptr noundef nonnull @.str.30, i32 noundef 7, ptr noundef %18)
  %19 = load i32, ptr @proto_awdl, align 4
  %20 = tail call ptr @create_dissector_handle(ptr noundef nonnull @awdl_tag_datapath_state, i32 noundef %19)
  tail call void @dissector_add_uint(ptr noundef nonnull @.str.30, i32 noundef 12, ptr noundef %20)
  %21 = load i32, ptr @proto_awdl, align 4
  %22 = tail call ptr @create_dissector_handle(ptr noundef nonnull @awdl_tag_arpa, i32 noundef %21)
  tail call void @dissector_add_uint(ptr noundef nonnull @.str.30, i32 noundef 16, ptr noundef %22)
  %23 = load i32, ptr @proto_awdl, align 4
  %24 = tail call ptr @create_dissector_handle(ptr noundef nonnull @awdl_tag_ieee80211_container, i32 noundef %23)
  tail call void @dissector_add_uint(ptr noundef nonnull @.str.30, i32 noundef 17, ptr noundef %24)
  %25 = load i32, ptr @proto_awdl, align 4
  %26 = tail call ptr @create_dissector_handle(ptr noundef nonnull @awdl_tag_channel_sequence, i32 noundef %25)
  tail call void @dissector_add_uint(ptr noundef nonnull @.str.30, i32 noundef 18, ptr noundef %26)
  %27 = load i32, ptr @proto_awdl, align 4
  %28 = tail call ptr @create_dissector_handle(ptr noundef nonnull @awdl_tag_sync_tree, i32 noundef %27)
  tail call void @dissector_add_uint(ptr noundef nonnull @.str.30, i32 noundef 20, ptr noundef %28)
  %29 = load i32, ptr @proto_awdl, align 4
  %30 = tail call ptr @create_dissector_handle(ptr noundef nonnull @awdl_tag_version, i32 noundef %29)
  tail call void @dissector_add_uint(ptr noundef nonnull @.str.30, i32 noundef 21, ptr noundef %30)
  %31 = load i32, ptr @proto_awdl, align 4
  %32 = tail call ptr @create_dissector_handle(ptr noundef nonnull @awdl_tag_election_params_v2, i32 noundef %31)
  tail call void @dissector_add_uint(ptr noundef nonnull @.str.30, i32 noundef 24, ptr noundef %32)
  %33 = load i32, ptr @proto_awdl_data, align 4
  tail call void @proto_register_field_array(i32 noundef %33, ptr noundef nonnull @proto_register_awdl.hf, i32 noundef 217)
  tail call void @proto_register_subtree_array(ptr noundef nonnull @proto_register_awdl.ett, i32 noundef 22)
  tail call void @llc_add_oui(i32 noundef 6130, ptr noundef nonnull @.str.425, ptr noundef nonnull @.str.440, ptr noundef nonnull @proto_register_awdl.hf_apple_awdl_pid, i32 noundef -1)
  ret void
}